target datalayout = "e-m:e-p270:32:32-p271:32:32-p272:64:64-i64:64-i128:128-f80:128-n8:16:32:64-S128"
target triple = "x86_64-pc-linux-gnu"

%struct.mbedtls_pk_info_t = type { i32, ptr, ptr, ptr, ptr, ptr, ptr, ptr, ptr, ptr, ptr, ptr }
%struct.mbedtls_pk_context = type { ptr, ptr }

; Function Attrs: mustprogress uwtable
define hidden i32 @mbedtls_pk_check_pair(ptr noundef %0, ptr noundef %1, ptr noundef %2, ptr noundef %3) #1 {
  %5 = alloca i32, align 4
  %6 = alloca ptr, align 8
  %7 = alloca ptr, align 8
  %8 = alloca ptr, align 8
  %9 = alloca ptr, align 8
  store ptr %0, ptr %6, align 8, !tbaa !3
  store ptr %1, ptr %7, align 8, !tbaa !3
  store ptr %2, ptr %8, align 8, !tbaa !25
  store ptr %3, ptr %9, align 8, !tbaa !25
  br label %10

10:                                               ; preds = %4
  br label %11

11:                                               ; preds = %10
  br label %12

12:                                               ; preds = %11
  br label %13

13:                                               ; preds = %12
  %14 = load ptr, ptr %6, align 8, !tbaa !3
  %15 = getelementptr inbounds nuw %struct.mbedtls_pk_context, ptr %14, i32 0, i32 0
  %16 = load ptr, ptr %15, align 8, !tbaa !8
  %17 = icmp eq ptr %16, null
  br i1 %17, label %23, label %18

18:                                               ; preds = %13
  %19 = load ptr, ptr %7, align 8, !tbaa !3
  %20 = getelementptr inbounds nuw %struct.mbedtls_pk_context, ptr %19, i32 0, i32 0
  %21 = load ptr, ptr %20, align 8, !tbaa !8
  %22 = icmp eq ptr %21, null
  br i1 %22, label %23, label %24

23:                                               ; preds = %18, %13
  store i32 -16000, ptr %5, align 4
  br label %77

24:                                               ; preds = %18
  %25 = load ptr, ptr %8, align 8, !tbaa !25
  %26 = icmp eq ptr %25, null
  br i1 %26, label %27, label %28

27:                                               ; preds = %24
  store i32 -16000, ptr %5, align 4
  br label %77

28:                                               ; preds = %24
  %29 = load ptr, ptr %7, align 8, !tbaa !3
  %30 = getelementptr inbounds nuw %struct.mbedtls_pk_context, ptr %29, i32 0, i32 0
  %31 = load ptr, ptr %30, align 8, !tbaa !8
  %32 = getelementptr inbounds nuw %struct.mbedtls_pk_info_t, ptr %31, i32 0, i32 8
  %33 = load ptr, ptr %32, align 8, !tbaa !34
  %34 = icmp eq ptr %33, null
  br i1 %34, label %35, label %36

35:                                               ; preds = %28
  store i32 -14720, ptr %5, align 4
  br label %77

36:                                               ; preds = %28
  %37 = load ptr, ptr %7, align 8, !tbaa !3
  %38 = getelementptr inbounds nuw %struct.mbedtls_pk_context, ptr %37, i32 0, i32 0
  %39 = load ptr, ptr %38, align 8, !tbaa !8
  %40 = getelementptr inbounds nuw %struct.mbedtls_pk_info_t, ptr %39, i32 0, i32 0
  %41 = load i32, ptr %40, align 8, !tbaa !35
  %42 = icmp eq i32 %41, 5
  br i1 %42, label %43, label %52

43:                                               ; preds = %36
  %44 = load ptr, ptr %6, align 8, !tbaa !3
  %45 = getelementptr inbounds nuw %struct.mbedtls_pk_context, ptr %44, i32 0, i32 0
  %46 = load ptr, ptr %45, align 8, !tbaa !8
  %47 = getelementptr inbounds nuw %struct.mbedtls_pk_info_t, ptr %46, i32 0, i32 0
  %48 = load i32, ptr %47, align 8, !tbaa !35
  %49 = icmp ne i32 %48, 1
  br i1 %49, label %50, label %51

50:                                               ; preds = %43
  store i32 -16128, ptr %5, align 4
  br label %77

51:                                               ; preds = %43
  br label %62

52:                                               ; preds = %36
  %53 = load ptr, ptr %6, align 8, !tbaa !3
  %54 = getelementptr inbounds nuw %struct.mbedtls_pk_context, ptr %53, i32 0, i32 0
  %55 = load ptr, ptr %54, align 8, !tbaa !8
  %56 = load ptr, ptr %7, align 8, !tbaa !3
  %57 = getelementptr inbounds nuw %struct.mbedtls_pk_context, ptr %56, i32 0, i32 0
  %58 = load ptr, ptr %57, align 8, !tbaa !8
  %59 = icmp ne ptr %55, %58
  br i1 %59, label %60, label %61

60:                                               ; preds = %52
  store i32 -16128, ptr %5, align 4
  br label %77

61:                                               ; preds = %52
  br label %62

62:                                               ; preds = %61, %51
  %63 = load ptr, ptr %7, align 8, !tbaa !3
  %64 = getelementptr inbounds nuw %struct.mbedtls_pk_context, ptr %63, i32 0, i32 0
  %65 = load ptr, ptr %64, align 8, !tbaa !8
  %66 = getelementptr inbounds nuw %struct.mbedtls_pk_info_t, ptr %65, i32 0, i32 8
  %67 = load ptr, ptr %66, align 8, !tbaa !34
  %68 = load ptr, ptr %6, align 8, !tbaa !3
  %69 = getelementptr inbounds nuw %struct.mbedtls_pk_context, ptr %68, i32 0, i32 1
  %70 = load ptr, ptr %69, align 8, !tbaa !11
  %71 = load ptr, ptr %7, align 8, !tbaa !3
  %72 = getelementptr inbounds nuw %struct.mbedtls_pk_context, ptr %71, i32 0, i32 1
  %73 = load ptr, ptr %72, align 8, !tbaa !11
  %74 = load ptr, ptr %8, align 8, !tbaa !25
  %75 = load ptr, ptr %9, align 8, !tbaa !25
  %76 = call noundef i32 %67(ptr noundef %70, ptr noundef %73, ptr noundef %74, ptr noundef %75)
  store i32 %76, ptr %5, align 4
  br label %77

77:                                               ; preds = %62, %60, %50, %35, %27, %23
  %78 = load i32, ptr %5, align 4
  ret i32 %78
}