; Function Attrs: mustprogress uwtable
define hidden noundef i32 @mbedtls_pk_check_pair(ptr noundef readonly captures(none) %0, ptr noundef readonly captures(none) %1, ptr noundef %2, ptr noundef %3) local_unnamed_addr #1 {
  %5 = load ptr, ptr %0, align 8, !tbaa !3
  %6 = icmp eq ptr %5, null
  br i1 %6, label %27, label %7

7:                                                ; preds = %4
  %8 = load ptr, ptr %1, align 8, !tbaa !3
  %9 = icmp eq ptr %8, null
  %10 = icmp eq ptr %2, null
  %or.cond = or i1 %10, %9
  br i1 %or.cond, label %27, label %11

11:                                               ; preds = %7
  %12 = getelementptr inbounds nuw i8, ptr %8, i64 64
  %13 = load ptr, ptr %12, align 8, !tbaa !20
  %14 = icmp eq ptr %13, null
  br i1 %14, label %27, label %15

15:                                               ; preds = %11
  %16 = load i32, ptr %8, align 8, !tbaa !21
  %17 = icmp eq i32 %16, 5
  br i1 %17, label %18, label %20

18:                                               ; preds = %15
  %19 = load i32, ptr %5, align 8, !tbaa !21
  %.not16 = icmp eq i32 %19, 1
  br i1 %.not16, label %21, label %27

20:                                               ; preds = %15
  %.not = icmp eq ptr %5, %8
  br i1 %.not, label %21, label %27

21:                                               ; preds = %20, %18
  %22 = getelementptr inbounds nuw i8, ptr %0, i64 8
  %23 = load ptr, ptr %22, align 8, !tbaa !13
  %24 = getelementptr inbounds nuw i8, ptr %1, i64 8
  %25 = load ptr, ptr %24, align 8, !tbaa !13
  %26 = tail call noundef i32 %13(ptr noundef %23, ptr noundef %25, ptr noundef nonnull %2, ptr noundef %3)
  br label %27

27:                                               ; preds = %20, %18, %11, %4, %7, %21
  %.0 = phi i32 [ %26, %21 ], [ -16000, %7 ], [ -16000, %4 ], [ -14720, %11 ], [ -16128, %18 ], [ -16128, %20 ]
  ret i32 %.0
}